target datalayout = "e-m:e-p270:32:32-p271:32:32-p272:64:64-i64:64-i128:128-f80:128-n8:16:32:64-S128"
target triple = "x86_64-pc-linux-gnu"

%struct.AVFilterContext = type { ptr, ptr, ptr, ptr, ptr, i32, ptr, ptr, i32, ptr, ptr, i32, i32, ptr, ptr, ptr, ptr, i32, ptr, i32, i32 }
%struct.AudioFIRContext = type { ptr, float, float, float, i32, float, float, float, i32, i32, float, i32, i32, i32, %struct.AVRational, i32, i32, i32, i32, i32, i32, i32, i32, [32 x i32], [32 x i32], [32 x i32], [32 x i32], [32 x i32], i32, i32, i32, ptr, ptr, [32 x [1024 x %struct.AudioFIRSegment]], ptr, [2 x ptr], [2 x ptr], [32 x ptr], [32 x ptr], i32, i32, i64, %struct.AudioFIRDSPContext, ptr }
%struct.AVRational = type { i32, i32 }
%struct.AudioFIRSegment = type { i32, i32, i32, i32, i32, i32, i32, ptr, ptr, ptr, ptr, ptr, ptr, ptr, ptr, ptr, ptr, ptr, ptr, ptr, ptr, ptr, ptr, ptr }
%struct.AudioFIRDSPContext = type { ptr, ptr }

; Function Attrs: nounwind uwtable
define internal void @uninit_segment(ptr noundef %0, ptr noundef %1) #1 {
  %3 = alloca ptr, align 8
  %4 = alloca ptr, align 8
  %5 = alloca ptr, align 8
  %6 = alloca i32, align 4
  %7 = alloca i32, align 4
  %8 = alloca i32, align 4
  %9 = alloca i32, align 4
  store ptr %0, ptr %3, align 8, !tbaa !4
  store ptr %1, ptr %4, align 8, !tbaa !111
  call void @llvm.lifetime.start.p0(i64 8, ptr %5) #10
  %10 = load ptr, ptr %3, align 8, !tbaa !4
  %11 = getelementptr inbounds nuw %struct.AVFilterContext, ptr %10, i32 0, i32 9
  %12 = load ptr, ptr %11, align 8, !tbaa !9
  store ptr %12, ptr %5, align 8, !tbaa !22
  %13 = load ptr, ptr %4, align 8, !tbaa !111
  %14 = getelementptr inbounds nuw %struct.AudioFIRSegment, ptr %13, i32 0, i32 18
  %15 = load ptr, ptr %14, align 8, !tbaa !113
  %16 = icmp ne ptr %15, null
  br i1 %16, label %17, label %36

17:                                               ; preds = %2
  call void @llvm.lifetime.start.p0(i64 4, ptr %6) #10
  store i32 0, ptr %6, align 4, !tbaa !40
  br label %18

18:                                               ; preds = %32, %17
  %19 = load i32, ptr %6, align 4, !tbaa !40
  %20 = load ptr, ptr %5, align 8, !tbaa !22
  %21 = getelementptr inbounds nuw %struct.AudioFIRContext, ptr %20, i32 0, i32 28
  %22 = load i32, ptr %21, align 4, !tbaa !66
  %23 = icmp slt i32 %19, %22
  br i1 %23, label %25, label %24

24:                                               ; preds = %18
  call void @llvm.lifetime.end.p0(i64 4, ptr %6) #10
  br label %35

25:                                               ; preds = %18
  %26 = load ptr, ptr %4, align 8, !tbaa !111
  %27 = getelementptr inbounds nuw %struct.AudioFIRSegment, ptr %26, i32 0, i32 18
  %28 = load ptr, ptr %27, align 8, !tbaa !113
  %29 = load i32, ptr %6, align 4, !tbaa !40
  %30 = sext i32 %29 to i64
  %31 = getelementptr inbounds ptr, ptr %28, i64 %30
  call void @av_tx_uninit(ptr noundef %31)
  br label %32

32:                                               ; preds = %25
  %33 = load i32, ptr %6, align 4, !tbaa !40
  %34 = add nsw i32 %33, 1
  store i32 %34, ptr %6, align 4, !tbaa !40
  br label %18, !llvm.loop !116

35:                                               ; preds = %24
  br label %36

36:                                               ; preds = %35, %2
  %37 = load ptr, ptr %4, align 8, !tbaa !111
  %38 = getelementptr inbounds nuw %struct.AudioFIRSegment, ptr %37, i32 0, i32 18
  call void @av_freep(ptr noundef %38)
  %39 = load ptr, ptr %4, align 8, !tbaa !111
  %40 = getelementptr inbounds nuw %struct.AudioFIRSegment, ptr %39, i32 0, i32 19
  %41 = load ptr, ptr %40, align 8, !tbaa !117
  %42 = icmp ne ptr %41, null
  br i1 %42, label %43, label %62

43:                                               ; preds = %36
  call void @llvm.lifetime.start.p0(i64 4, ptr %7) #10
  store i32 0, ptr %7, align 4, !tbaa !40
  br label %44

44:                                               ; preds = %58, %43
  %45 = load i32, ptr %7, align 4, !tbaa !40
  %46 = load ptr, ptr %5, align 8, !tbaa !22
  %47 = getelementptr inbounds nuw %struct.AudioFIRContext, ptr %46, i32 0, i32 28
  %48 = load i32, ptr %47, align 4, !tbaa !66
  %49 = icmp slt i32 %45, %48
  br i1 %49, label %51, label %50

50:                                               ; preds = %44
  call void @llvm.lifetime.end.p0(i64 4, ptr %7) #10
  br label %61

51:                                               ; preds = %44
  %52 = load ptr, ptr %4, align 8, !tbaa !111
  %53 = getelementptr inbounds nuw %struct.AudioFIRSegment, ptr %52, i32 0, i32 19
  %54 = load ptr, ptr %53, align 8, !tbaa !117
  %55 = load i32, ptr %7, align 4, !tbaa !40
  %56 = sext i32 %55 to i64
  %57 = getelementptr inbounds ptr, ptr %54, i64 %56
  call void @av_tx_uninit(ptr noundef %57)
  br label %58

58:                                               ; preds = %51
  %59 = load i32, ptr %7, align 4, !tbaa !40
  %60 = add nsw i32 %59, 1
  store i32 %60, ptr %7, align 4, !tbaa !40
  br label %44, !llvm.loop !118

61:                                               ; preds = %50
  br label %62

62:                                               ; preds = %61, %36
  %63 = load ptr, ptr %4, align 8, !tbaa !111
  %64 = getelementptr inbounds nuw %struct.AudioFIRSegment, ptr %63, i32 0, i32 19
  call void @av_freep(ptr noundef %64)
  %65 = load ptr, ptr %4, align 8, !tbaa !111
  %66 = getelementptr inbounds nuw %struct.AudioFIRSegment, ptr %65, i32 0, i32 20
  %67 = load ptr, ptr %66, align 8, !tbaa !119
  %68 = icmp ne ptr %67, null
  br i1 %68, label %69, label %88

69:                                               ; preds = %62
  call void @llvm.lifetime.start.p0(i64 4, ptr %8) #10
  store i32 0, ptr %8, align 4, !tbaa !40
  br label %70

70:                                               ; preds = %84, %69
  %71 = load i32, ptr %8, align 4, !tbaa !40
  %72 = load ptr, ptr %5, align 8, !tbaa !22
  %73 = getelementptr inbounds nuw %struct.AudioFIRContext, ptr %72, i32 0, i32 28
  %74 = load i32, ptr %73, align 4, !tbaa !66
  %75 = icmp slt i32 %71, %74
  br i1 %75, label %77, label %76

76:                                               ; preds = %70
  call void @llvm.lifetime.end.p0(i64 4, ptr %8) #10
  br label %87

77:                                               ; preds = %70
  %78 = load ptr, ptr %4, align 8, !tbaa !111
  %79 = getelementptr inbounds nuw %struct.AudioFIRSegment, ptr %78, i32 0, i32 20
  %80 = load ptr, ptr %79, align 8, !tbaa !119
  %81 = load i32, ptr %8, align 4, !tbaa !40
  %82 = sext i32 %81 to i64
  %83 = getelementptr inbounds ptr, ptr %80, i64 %82
  call void @av_tx_uninit(ptr noundef %83)
  br label %84

84:                                               ; preds = %77
  %85 = load i32, ptr %8, align 4, !tbaa !40
  %86 = add nsw i32 %85, 1
  store i32 %86, ptr %8, align 4, !tbaa !40
  br label %70, !llvm.loop !120

87:                                               ; preds = %76
  br label %88

88:                                               ; preds = %87, %62
  %89 = load ptr, ptr %4, align 8, !tbaa !111
  %90 = getelementptr inbounds nuw %struct.AudioFIRSegment, ptr %89, i32 0, i32 20
  call void @av_freep(ptr noundef %90)
  %91 = load ptr, ptr %4, align 8, !tbaa !111
  %92 = getelementptr inbounds nuw %struct.AudioFIRSegment, ptr %91, i32 0, i32 7
  call void @av_freep(ptr noundef %92)
  %93 = load ptr, ptr %4, align 8, !tbaa !111
  %94 = getelementptr inbounds nuw %struct.AudioFIRSegment, ptr %93, i32 0, i32 8
  call void @av_freep(ptr noundef %94)
  %95 = load ptr, ptr %4, align 8, !tbaa !111
  %96 = getelementptr inbounds nuw %struct.AudioFIRSegment, ptr %95, i32 0, i32 12
  call void @av_frame_free(ptr noundef %96)
  %97 = load ptr, ptr %4, align 8, !tbaa !111
  %98 = getelementptr inbounds nuw %struct.AudioFIRSegment, ptr %97, i32 0, i32 13
  call void @av_frame_free(ptr noundef %98)
  %99 = load ptr, ptr %4, align 8, !tbaa !111
  %100 = getelementptr inbounds nuw %struct.AudioFIRSegment, ptr %99, i32 0, i32 11
  call void @av_frame_free(ptr noundef %100)
  %101 = load ptr, ptr %4, align 8, !tbaa !111
  %102 = getelementptr inbounds nuw %struct.AudioFIRSegment, ptr %101, i32 0, i32 9
  call void @av_frame_free(ptr noundef %102)
  %103 = load ptr, ptr %4, align 8, !tbaa !111
  %104 = getelementptr inbounds nuw %struct.AudioFIRSegment, ptr %103, i32 0, i32 10
  call void @av_frame_free(ptr noundef %104)
  %105 = load ptr, ptr %4, align 8, !tbaa !111
  %106 = getelementptr inbounds nuw %struct.AudioFIRSegment, ptr %105, i32 0, i32 14
  call void @av_frame_free(ptr noundef %106)
  %107 = load ptr, ptr %4, align 8, !tbaa !111
  %108 = getelementptr inbounds nuw %struct.AudioFIRSegment, ptr %107, i32 0, i32 16
  call void @av_frame_free(ptr noundef %108)
  %109 = load ptr, ptr %4, align 8, !tbaa !111
  %110 = getelementptr inbounds nuw %struct.AudioFIRSegment, ptr %109, i32 0, i32 17
  call void @av_frame_free(ptr noundef %110)
  %111 = load ptr, ptr %4, align 8, !tbaa !111
  %112 = getelementptr inbounds nuw %struct.AudioFIRSegment, ptr %111, i32 0, i32 5
  store i32 0, ptr %112, align 4, !tbaa !121
  call void @llvm.lifetime.start.p0(i64 4, ptr %9) #10
  store i32 0, ptr %9, align 4, !tbaa !40
  br label %113

113:                                              ; preds = %120, %88
  %114 = load i32, ptr %9, align 4, !tbaa !40
  %115 = icmp slt i32 %114, 32
  br i1 %115, label %117, label %116

116:                                              ; preds = %113
  call void @llvm.lifetime.end.p0(i64 4, ptr %9) #10
  br label %123

117:                                              ; preds = %113
  %118 = load ptr, ptr %4, align 8, !tbaa !111
  %119 = getelementptr inbounds nuw %struct.AudioFIRSegment, ptr %118, i32 0, i32 15
  call void @av_frame_free(ptr noundef %119)
  br label %120

120:                                              ; preds = %117
  %121 = load i32, ptr %9, align 4, !tbaa !40
  %122 = add nsw i32 %121, 1
  store i32 %122, ptr %9, align 4, !tbaa !40
  br label %113, !llvm.loop !122

123:                                              ; preds = %116
  call void @llvm.lifetime.end.p0(i64 8, ptr %5) #10
  ret void
}

; Function Attrs: cold nounwind optsize uwtable
define internal void @uninit(ptr noundef %0) #0 {
  %2 = alloca ptr, align 8
  %3 = alloca ptr, align 8
  %4 = alloca i32, align 4
  %5 = alloca i32, align 4
  %6 = alloca i32, align 4
  store ptr %0, ptr %2, align 8, !tbaa !4
  call void @llvm.lifetime.start.p0(i64 8, ptr %3) #10
  %7 = load ptr, ptr %2, align 8, !tbaa !4
  %8 = getelementptr inbounds nuw %struct.AVFilterContext, ptr %7, i32 0, i32 9
  %9 = load ptr, ptr %8, align 8, !tbaa !9
  store ptr %9, ptr %3, align 8, !tbaa !22
  %10 = load ptr, ptr %3, align 8, !tbaa !22
  %11 = getelementptr inbounds nuw %struct.AudioFIRContext, ptr %10, i32 0, i32 43
  call void @av_freep(ptr noundef %11)
  %12 = load ptr, ptr %3, align 8, !tbaa !22
  %13 = getelementptr inbounds nuw %struct.AudioFIRContext, ptr %12, i32 0, i32 32
  call void @av_freep(ptr noundef %13)
  %14 = load ptr, ptr %3, align 8, !tbaa !22
  %15 = getelementptr inbounds nuw %struct.AudioFIRContext, ptr %14, i32 0, i32 31
  call void @av_freep(ptr noundef %15)
  call void @llvm.lifetime.start.p0(i64 4, ptr %4) #10
  store i32 0, ptr %4, align 4, !tbaa !40
  br label %16

16:                                               ; preds = %58, %1
  %17 = load i32, ptr %4, align 4, !tbaa !40
  %18 = load ptr, ptr %3, align 8, !tbaa !22
  %19 = getelementptr inbounds nuw %struct.AudioFIRContext, ptr %18, i32 0, i32 18
  %20 = load i32, ptr %19, align 8, !tbaa !24
  %21 = icmp slt i32 %17, %20
  br i1 %21, label %23, label %22

22:                                               ; preds = %16
  store i32 2, ptr %5, align 4
  call void @llvm.lifetime.end.p0(i64 4, ptr %4) #10
  br label %61

23:                                               ; preds = %16
  call void @llvm.lifetime.start.p0(i64 4, ptr %6) #10
  store i32 0, ptr %6, align 4, !tbaa !40
  br label %24

24:                                               ; preds = %44, %23
  %25 = load i32, ptr %6, align 4, !tbaa !40
  %26 = load ptr, ptr %3, align 8, !tbaa !22
  %27 = getelementptr inbounds nuw %struct.AudioFIRContext, ptr %26, i32 0, i32 26
  %28 = load i32, ptr %4, align 4, !tbaa !40
  %29 = sext i32 %28 to i64
  %30 = getelementptr inbounds [32 x i32], ptr %27, i64 0, i64 %29
  %31 = load i32, ptr %30, align 4, !tbaa !40
  %32 = icmp slt i32 %25, %31
  br i1 %32, label %34, label %33

33:                                               ; preds = %24
  store i32 5, ptr %5, align 4
  call void @llvm.lifetime.end.p0(i64 4, ptr %6) #10
  br label %47

34:                                               ; preds = %24
  %35 = load ptr, ptr %2, align 8, !tbaa !4
  %36 = load ptr, ptr %3, align 8, !tbaa !22
  %37 = getelementptr inbounds nuw %struct.AudioFIRContext, ptr %36, i32 0, i32 33
  %38 = load i32, ptr %4, align 4, !tbaa !40
  %39 = sext i32 %38 to i64
  %40 = getelementptr inbounds [32 x [1024 x %struct.AudioFIRSegment]], ptr %37, i64 0, i64 %39
  %41 = load i32, ptr %6, align 4, !tbaa !40
  %42 = sext i32 %41 to i64
  %43 = getelementptr inbounds [1024 x %struct.AudioFIRSegment], ptr %40, i64 0, i64 %42
  call void @uninit_segment(ptr noundef %35, ptr noundef %43)
  br label %44

44:                                               ; preds = %34
  %45 = load i32, ptr %6, align 4, !tbaa !40
  %46 = add nsw i32 %45, 1
  store i32 %46, ptr %6, align 4, !tbaa !40
  br label %24, !llvm.loop !50

47:                                               ; preds = %33
  %48 = load ptr, ptr %3, align 8, !tbaa !22
  %49 = getelementptr inbounds nuw %struct.AudioFIRContext, ptr %48, i32 0, i32 37
  %50 = load i32, ptr %4, align 4, !tbaa !40
  %51 = sext i32 %50 to i64
  %52 = getelementptr inbounds [32 x ptr], ptr %49, i64 0, i64 %51
  call void @av_frame_free(ptr noundef %52)
  %53 = load ptr, ptr %3, align 8, !tbaa !22
  %54 = getelementptr inbounds nuw %struct.AudioFIRContext, ptr %53, i32 0, i32 38
  %55 = load i32, ptr %4, align 4, !tbaa !40
  %56 = sext i32 %55 to i64
  %57 = getelementptr inbounds [32 x ptr], ptr %54, i64 0, i64 %56
  call void @av_frame_free(ptr noundef %57)
  br label %58

58:                                               ; preds = %47
  %59 = load i32, ptr %4, align 4, !tbaa !40
  %60 = add nsw i32 %59, 1
  store i32 %60, ptr %4, align 4, !tbaa !40
  br label %16, !llvm.loop !51

61:                                               ; preds = %22
  %62 = load ptr, ptr %3, align 8, !tbaa !22
  %63 = getelementptr inbounds nuw %struct.AudioFIRContext, ptr %62, i32 0, i32 36
  %64 = getelementptr inbounds [2 x ptr], ptr %63, i64 0, i64 0
  call void @av_frame_free(ptr noundef %64)
  %65 = load ptr, ptr %3, align 8, !tbaa !22
  %66 = getelementptr inbounds nuw %struct.AudioFIRContext, ptr %65, i32 0, i32 36
  %67 = getelementptr inbounds [2 x ptr], ptr %66, i64 0, i64 1
  call void @av_frame_free(ptr noundef %67)
  %68 = load ptr, ptr %3, align 8, !tbaa !22
  %69 = getelementptr inbounds nuw %struct.AudioFIRContext, ptr %68, i32 0, i32 35
  %70 = getelementptr inbounds [2 x ptr], ptr %69, i64 0, i64 0
  call void @av_frame_free(ptr noundef %70)
  %71 = load ptr, ptr %3, align 8, !tbaa !22
  %72 = getelementptr inbounds nuw %struct.AudioFIRContext, ptr %71, i32 0, i32 35
  %73 = getelementptr inbounds [2 x ptr], ptr %72, i64 0, i64 1
  call void @av_frame_free(ptr noundef %73)
  call void @llvm.lifetime.end.p0(i64 8, ptr %3) #10
  ret void
}