; Function Attrs: cold nounwind optsize uwtable
define internal void @uninit(ptr noundef readonly captures(none) %0) #0 {
  %2 = getelementptr inbounds nuw i8, ptr %0, i64 72
  %3 = load ptr, ptr %2, align 8, !tbaa !4
  %4 = getelementptr inbounds nuw i8, ptr %3, i64 5506376
  tail call void @av_freep(ptr noundef nonnull %4) #10
  %5 = getelementptr inbounds nuw i8, ptr %3, i64 760
  tail call void @av_freep(ptr noundef nonnull %5) #10
  %6 = getelementptr inbounds nuw i8, ptr %3, i64 752
  tail call void @av_freep(ptr noundef nonnull %6) #10
  %7 = getelementptr inbounds nuw i8, ptr %3, i64 80
  %8 = load i32, ptr %7, align 8, !tbaa !20
  %9 = icmp sgt i32 %8, 0
  br i1 %9, label %.preheader.lr.ph, label %._crit_edge25

.preheader.lr.ph:                                 ; preds = %1
  %10 = getelementptr inbounds nuw i8, ptr %3, i64 484
  %11 = getelementptr inbounds nuw i8, ptr %3, i64 768
  %12 = getelementptr inbounds nuw i8, ptr %3, i64 5505832
  %13 = getelementptr inbounds nuw i8, ptr %3, i64 5506088
  br label %.preheader

.preheader:                                       ; preds = %.preheader.lr.ph, %._crit_edge
  %indvars.iv27 = phi i64 [ 0, %.preheader.lr.ph ], [ %indvars.iv.next28, %._crit_edge ]
  %14 = getelementptr inbounds nuw [32 x i32], ptr %10, i64 0, i64 %indvars.iv27
  %15 = load i32, ptr %14, align 4, !tbaa !32
  %16 = icmp sgt i32 %15, 0
  br i1 %16, label %.lr.ph, label %._crit_edge

._crit_edge25:                                    ; preds = %._crit_edge, %1
  %17 = getelementptr inbounds nuw i8, ptr %3, i64 5505816
  tail call void @av_frame_free(ptr noundef nonnull %17) #10
  %18 = getelementptr inbounds nuw i8, ptr %3, i64 5505824
  tail call void @av_frame_free(ptr noundef nonnull %18) #10
  %19 = getelementptr inbounds nuw i8, ptr %3, i64 5505800
  tail call void @av_frame_free(ptr noundef nonnull %19) #10
  %20 = getelementptr inbounds nuw i8, ptr %3, i64 5505808
  tail call void @av_frame_free(ptr noundef nonnull %20) #10
  ret void

._crit_edge:                                      ; preds = %uninit_segment.exit, %.preheader
  %21 = getelementptr inbounds nuw [32 x ptr], ptr %12, i64 0, i64 %indvars.iv27
  tail call void @av_frame_free(ptr noundef nonnull %21) #10
  %22 = getelementptr inbounds nuw [32 x ptr], ptr %13, i64 0, i64 %indvars.iv27
  tail call void @av_frame_free(ptr noundef nonnull %22) #10
  %indvars.iv.next28 = add nuw nsw i64 %indvars.iv27, 1
  %23 = load i32, ptr %7, align 8, !tbaa !20
  %24 = sext i32 %23 to i64
  %25 = icmp slt i64 %indvars.iv.next28, %24
  br i1 %25, label %.preheader, label %._crit_edge25, !llvm.loop !43

.lr.ph:                                           ; preds = %.preheader, %uninit_segment.exit
  %indvars.iv = phi i64 [ %indvars.iv.next, %uninit_segment.exit ], [ 0, %.preheader ]
  %26 = getelementptr inbounds nuw [32 x [1024 x %struct.AudioFIRSegment]], ptr %11, i64 0, i64 %indvars.iv27, i64 %indvars.iv
  %.val = load ptr, ptr %2, align 8, !tbaa !4
  %27 = getelementptr inbounds nuw i8, ptr %26, i64 120
  %28 = load ptr, ptr %27, align 8, !tbaa !44
  %.not.i = icmp eq ptr %28, null
  br i1 %.not.i, label %.loopexit4.i, label %.preheader3.i

.preheader3.i:                                    ; preds = %.lr.ph
  %29 = getelementptr inbounds nuw i8, ptr %.val, i64 740
  %30 = load i32, ptr %29, align 4, !tbaa !47
  %31 = icmp sgt i32 %30, 0
  br i1 %31, label %.lr.ph.i, label %.loopexit4.i

.lr.ph.i:                                         ; preds = %.preheader3.i, %.lr.ph.i
  %indvars.iv.i = phi i64 [ %indvars.iv.next.i, %.lr.ph.i ], [ 0, %.preheader3.i ]
  %32 = load ptr, ptr %27, align 8, !tbaa !44
  %33 = getelementptr inbounds nuw ptr, ptr %32, i64 %indvars.iv.i
  tail call void @av_tx_uninit(ptr noundef %33) #10
  %indvars.iv.next.i = add nuw nsw i64 %indvars.iv.i, 1
  %34 = load i32, ptr %29, align 4, !tbaa !47
  %35 = sext i32 %34 to i64
  %36 = icmp slt i64 %indvars.iv.next.i, %35
  br i1 %36, label %.lr.ph.i, label %.loopexit4.i, !llvm.loop !48

.loopexit4.i:                                     ; preds = %.lr.ph.i, %.preheader3.i, %.lr.ph
  tail call void @av_freep(ptr noundef nonnull %27) #10
  %37 = getelementptr inbounds nuw i8, ptr %26, i64 128
  %38 = load ptr, ptr %37, align 8, !tbaa !49
  %.not38.i = icmp eq ptr %38, null
  br i1 %.not38.i, label %.loopexit2.i, label %.preheader1.i

.preheader1.i:                                    ; preds = %.loopexit4.i
  %39 = getelementptr inbounds nuw i8, ptr %.val, i64 740
  %40 = load i32, ptr %39, align 4, !tbaa !47
  %41 = icmp sgt i32 %40, 0
  br i1 %41, label %.lr.ph7.i, label %.loopexit2.i

.lr.ph7.i:                                        ; preds = %.preheader1.i, %.lr.ph7.i
  %indvars.iv12.i = phi i64 [ %indvars.iv.next13.i, %.lr.ph7.i ], [ 0, %.preheader1.i ]
  %42 = load ptr, ptr %37, align 8, !tbaa !49
  %43 = getelementptr inbounds nuw ptr, ptr %42, i64 %indvars.iv12.i
  tail call void @av_tx_uninit(ptr noundef %43) #10
  %indvars.iv.next13.i = add nuw nsw i64 %indvars.iv12.i, 1
  %44 = load i32, ptr %39, align 4, !tbaa !47
  %45 = sext i32 %44 to i64
  %46 = icmp slt i64 %indvars.iv.next13.i, %45
  br i1 %46, label %.lr.ph7.i, label %.loopexit2.i, !llvm.loop !50

.loopexit2.i:                                     ; preds = %.lr.ph7.i, %.preheader1.i, %.loopexit4.i
  tail call void @av_freep(ptr noundef nonnull %37) #10
  %47 = getelementptr inbounds nuw i8, ptr %26, i64 136
  %48 = load ptr, ptr %47, align 8, !tbaa !51
  %.not39.i = icmp eq ptr %48, null
  br i1 %.not39.i, label %.loopexit.i, label %.preheader.i

.preheader.i:                                     ; preds = %.loopexit2.i
  %49 = getelementptr inbounds nuw i8, ptr %.val, i64 740
  %50 = load i32, ptr %49, align 4, !tbaa !47
  %51 = icmp sgt i32 %50, 0
  br i1 %51, label %.lr.ph9.i, label %.loopexit.i

.lr.ph9.i:                                        ; preds = %.preheader.i, %.lr.ph9.i
  %indvars.iv15.i = phi i64 [ %indvars.iv.next16.i, %.lr.ph9.i ], [ 0, %.preheader.i ]
  %52 = load ptr, ptr %47, align 8, !tbaa !51
  %53 = getelementptr inbounds nuw ptr, ptr %52, i64 %indvars.iv15.i
  tail call void @av_tx_uninit(ptr noundef %53) #10
  %indvars.iv.next16.i = add nuw nsw i64 %indvars.iv15.i, 1
  %54 = load i32, ptr %49, align 4, !tbaa !47
  %55 = sext i32 %54 to i64
  %56 = icmp slt i64 %indvars.iv.next16.i, %55
  br i1 %56, label %.lr.ph9.i, label %.loopexit.i, !llvm.loop !52

.loopexit.i:                                      ; preds = %.lr.ph9.i, %.preheader.i, %.loopexit2.i
  tail call void @av_freep(ptr noundef nonnull %47) #10
  %57 = getelementptr inbounds nuw i8, ptr %26, i64 32
  tail call void @av_freep(ptr noundef nonnull %57) #10
  %58 = getelementptr inbounds nuw i8, ptr %26, i64 40
  tail call void @av_freep(ptr noundef nonnull %58) #10
  %59 = getelementptr inbounds nuw i8, ptr %26, i64 72
  tail call void @av_frame_free(ptr noundef nonnull %59) #10
  %60 = getelementptr inbounds nuw i8, ptr %26, i64 80
  tail call void @av_frame_free(ptr noundef nonnull %60) #10
  %61 = getelementptr inbounds nuw i8, ptr %26, i64 64
  tail call void @av_frame_free(ptr noundef nonnull %61) #10
  %62 = getelementptr inbounds nuw i8, ptr %26, i64 48
  tail call void @av_frame_free(ptr noundef nonnull %62) #10
  %63 = getelementptr inbounds nuw i8, ptr %26, i64 56
  tail call void @av_frame_free(ptr noundef nonnull %63) #10
  %64 = getelementptr inbounds nuw i8, ptr %26, i64 88
  tail call void @av_frame_free(ptr noundef nonnull %64) #10
  %65 = getelementptr inbounds nuw i8, ptr %26, i64 104
  tail call void @av_frame_free(ptr noundef nonnull %65) #10
  %66 = getelementptr inbounds nuw i8, ptr %26, i64 112
  tail call void @av_frame_free(ptr noundef nonnull %66) #10
  %67 = getelementptr inbounds nuw i8, ptr %26, i64 20
  store i32 0, ptr %67, align 4, !tbaa !53
  %68 = getelementptr inbounds nuw i8, ptr %26, i64 96
  br label %69

69:                                               ; preds = %69, %.loopexit.i
  %.010.i = phi i32 [ 0, %.loopexit.i ], [ %70, %69 ]
  tail call void @av_frame_free(ptr noundef nonnull %68) #10
  %70 = add nuw nsw i32 %.010.i, 1
  %exitcond.not.i = icmp eq i32 %70, 32
  br i1 %exitcond.not.i, label %uninit_segment.exit, label %69, !llvm.loop !54

uninit_segment.exit:                              ; preds = %69
  %indvars.iv.next = add nuw nsw i64 %indvars.iv, 1
  %71 = load i32, ptr %14, align 4, !tbaa !32
  %72 = sext i32 %71 to i64
  %73 = icmp slt i64 %indvars.iv.next, %72
  br i1 %73, label %.lr.ph, label %._crit_edge, !llvm.loop !55
}